target datalayout = "e-m:e-p270:32:32-p271:32:32-p272:64:64-i64:64-i128:128-f80:128-n8:16:32:64-S128"
target triple = "x86_64-pc-linux-gnu"

%struct.SplashStream = type { ptr, ptr, ptr, %union.anon }
%union.anon = type { %struct.anon.0 }
%struct.anon.0 = type { ptr, ptr }

; Function Attrs: nounwind uwtable
define hidden i32 @SplashDecodePngStream(ptr noundef %0, ptr noundef %1) #0 {
  %3 = alloca ptr, align 8
  %4 = alloca ptr, align 8
  %5 = alloca [8 x i8], align 1
  %6 = alloca i32, align 4
  store ptr %0, ptr %3, align 8
  store ptr %1, ptr %4, align 8
  store i32 0, ptr %6, align 4
  %7 = load ptr, ptr %4, align 8
  %8 = getelementptr inbounds %struct.SplashStream, ptr %7, i32 0, i32 0
  %9 = load ptr, ptr %8, align 8
  %10 = load ptr, ptr %4, align 8
  %11 = getelementptr inbounds [8 x i8], ptr %5, i64 0, i64 0
  %12 = call i32 %9(ptr noundef %10, ptr noundef %11, i32 noundef 8)
  %13 = getelementptr inbounds [8 x i8], ptr %5, i64 0, i64 0
  %14 = call i32 @png_sig_cmp(ptr noundef %13, i64 noundef 0, i64 noundef 8)
  %15 = icmp ne i32 %14, 0
  br i1 %15, label %16, label %17

16:                                               ; preds = %2
  br label %21

17:                                               ; preds = %2
  %18 = load ptr, ptr %3, align 8
  %19 = load ptr, ptr %4, align 8
  %20 = call i32 @SplashDecodePng(ptr noundef %18, ptr noundef @my_png_read_stream, ptr noundef %19)
  store i32 %20, ptr %6, align 4
  br label %21

21:                                               ; preds = %17, %16
  %22 = load i32, ptr %6, align 4
  ret i32 %22
}