; Function Attrs: nounwind uwtable
define hidden range(i32 0, 2) i32 @SplashDecodePngStream(ptr noundef %0, ptr noundef %1) local_unnamed_addr #0 {
  %3 = alloca [8 x i8], align 1
  %4 = load ptr, ptr %1, align 8
  %5 = call i32 %4(ptr noundef nonnull %1, ptr noundef nonnull %3, i32 noundef 8) #7
  %6 = call i32 @png_sig_cmp(ptr noundef nonnull %3, i64 noundef 0, i64 noundef 8) #7
  %.not = icmp eq i32 %6, 0
  br i1 %.not, label %7, label %9

7:                                                ; preds = %2
  %8 = call i32 @SplashDecodePng(ptr noundef %0, ptr noundef nonnull @my_png_read_stream, ptr noundef nonnull %1)
  br label %9

9:                                                ; preds = %2, %7
  %.0 = phi i32 [ 0, %2 ], [ %8, %7 ]
  ret i32 %.0
}